target datalayout = "e-m:e-p270:32:32-p271:32:32-p272:64:64-i64:64-i128:128-f80:128-n8:16:32:64-S128"
target triple = "x86_64-pc-linux-gnu"

%struct._zval_struct = type { %union._zend_value, %union.anon.0, %union.anon.3 }
%union._zend_value = type { i64 }
%union.anon.0 = type { i32 }
%union.anon.3 = type { i32 }
%struct._zend_array = type { %struct._zend_refcounted_h, %union.anon.5, i32, %union.anon.7, i32, i32, i32, i32, i64, ptr }
%struct._zend_refcounted_h = type { i32, %union.anon }
%union.anon = type { i32 }
%union.anon.5 = type { i32 }
%union.anon.7 = type { ptr }
%struct._zend_object = type { %struct._zend_refcounted_h, i32, ptr, ptr, ptr, [1 x %struct._zval_struct] }
%struct._zend_class_entry = type { i8, ptr, %union.anon.4, i32, i32, i32, i32, ptr, ptr, ptr, %struct._zend_array, %struct._zend_array, %struct._zend_array, ptr, ptr, ptr, ptr, ptr, ptr, ptr, ptr, ptr, ptr, ptr, ptr, ptr, ptr, ptr, ptr, ptr, ptr, ptr, %union.anon.8, ptr, ptr, ptr, ptr, i32, i32, %union.anon.9, ptr, ptr, ptr, ptr, i32, ptr, ptr, %union.anon.10 }
%union.anon.4 = type { ptr }
%union.anon.8 = type { ptr }
%union.anon.9 = type { ptr }
%union.anon.10 = type { %struct.anon.11 }
%struct.anon.11 = type { ptr, i32, i32 }
%struct.anon.13 = type { i8, [3 x i8], i32, ptr, ptr, ptr, i32, i32, ptr, ptr, ptr, ptr, i32 }

@zend_known_strings = external global ptr, align 8

; Function Attrs: nounwind uwtable
define i32 @zend_std_get_closure(ptr noundef %0, ptr noundef %1, ptr noundef %2, ptr noundef %3, i1 noundef zeroext %4) #0 {
  %6 = alloca i32, align 4
  %7 = alloca ptr, align 8
  %8 = alloca ptr, align 8
  %9 = alloca ptr, align 8
  %10 = alloca ptr, align 8
  %11 = alloca i8, align 1
  %12 = alloca ptr, align 8
  %13 = alloca ptr, align 8
  store ptr %0, ptr %7, align 8
  store ptr %1, ptr %8, align 8
  store ptr %2, ptr %9, align 8
  store ptr %3, ptr %10, align 8
  %14 = zext i1 %4 to i8
  store i8 %14, ptr %11, align 1
  %15 = load ptr, ptr %7, align 8
  %16 = getelementptr inbounds %struct._zend_object, ptr %15, i32 0, i32 2
  %17 = load ptr, ptr %16, align 8
  store ptr %17, ptr %12, align 8
  %18 = load ptr, ptr %12, align 8
  %19 = getelementptr inbounds %struct._zend_class_entry, ptr %18, i32 0, i32 10
  %20 = load ptr, ptr @zend_known_strings, align 8
  %21 = getelementptr inbounds ptr, ptr %20, i64 22
  %22 = load ptr, ptr %21, align 8
  %23 = call ptr @zend_hash_find_known_hash(ptr noundef %19, ptr noundef %22)
  store ptr %23, ptr %13, align 8
  %24 = load ptr, ptr %13, align 8
  %25 = icmp eq ptr %24, null
  br i1 %25, label %26, label %27

26:                                               ; preds = %5
  store i32 -1, ptr %6, align 4
  br label %54

27:                                               ; preds = %5
  %28 = load ptr, ptr %13, align 8
  %29 = getelementptr inbounds %struct._zval_struct, ptr %28, i32 0, i32 0
  %30 = load ptr, ptr %29, align 8
  %31 = load ptr, ptr %9, align 8
  store ptr %30, ptr %31, align 8
  %32 = load ptr, ptr %12, align 8
  %33 = load ptr, ptr %8, align 8
  store ptr %32, ptr %33, align 8
  %34 = load ptr, ptr %9, align 8
  %35 = load ptr, ptr %34, align 8
  %36 = getelementptr inbounds %struct.anon.13, ptr %35, i32 0, i32 2
  %37 = load i32, ptr %36, align 4
  %38 = and i32 %37, 16
  %39 = icmp ne i32 %38, 0
  br i1 %39, label %40, label %46

40:                                               ; preds = %27
  %41 = load ptr, ptr %10, align 8
  %42 = icmp ne ptr %41, null
  br i1 %42, label %43, label %45

43:                                               ; preds = %40
  %44 = load ptr, ptr %10, align 8
  store ptr null, ptr %44, align 8
  br label %45

45:                                               ; preds = %43, %40
  br label %53

46:                                               ; preds = %27
  %47 = load ptr, ptr %10, align 8
  %48 = icmp ne ptr %47, null
  br i1 %48, label %49, label %52

49:                                               ; preds = %46
  %50 = load ptr, ptr %7, align 8
  %51 = load ptr, ptr %10, align 8
  store ptr %50, ptr %51, align 8
  br label %52

52:                                               ; preds = %49, %46
  br label %53

53:                                               ; preds = %52, %45
  store i32 0, ptr %6, align 4
  br label %54

54:                                               ; preds = %53, %26
  %55 = load i32, ptr %6, align 4
  ret i32 %55
}