; Function Attrs: nounwind uwtable
define noundef i32 @zend_std_get_closure(ptr noundef %0, ptr nocapture noundef writeonly %1, ptr nocapture noundef %2, ptr noundef writeonly %3, i1 zeroext %4) #0 {
  %6 = getelementptr inbounds i8, ptr %0, i64 16
  %7 = load ptr, ptr %6, align 8
  %8 = getelementptr inbounds i8, ptr %7, i64 64
  %9 = load ptr, ptr @zend_known_strings, align 8
  %10 = getelementptr inbounds i8, ptr %9, i64 176
  %11 = load ptr, ptr %10, align 8
  %12 = tail call ptr @zend_hash_find_known_hash(ptr noundef nonnull %8, ptr noundef %11) #15
  %13 = icmp eq ptr %12, null
  br i1 %13, label %20, label %14

14:                                               ; preds = %5
  %15 = load ptr, ptr %12, align 8
  store ptr %15, ptr %2, align 8
  store ptr %7, ptr %1, align 8
  %.not15 = icmp eq ptr %3, null
  br i1 %.not15, label %20, label %.sink.split

.sink.split:                                      ; preds = %14
  %16 = load ptr, ptr %2, align 8
  %17 = getelementptr inbounds i8, ptr %16, i64 4
  %18 = load i32, ptr %17, align 4
  %19 = and i32 %18, 16
  %.not = icmp eq i32 %19, 0
  %. = select i1 %.not, ptr %0, ptr null
  store ptr %., ptr %3, align 8
  br label %20

20:                                               ; preds = %14, %.sink.split, %5
  %.0 = phi i32 [ -1, %5 ], [ 0, %.sink.split ], [ 0, %14 ]
  ret i32 %.0
}